target datalayout = "e-m:e-p270:32:32-p271:32:32-p272:64:64-i64:64-i128:128-f80:128-n8:16:32:64-S128"
target triple = "x86_64-pc-linux-gnu"

%struct._value_string_ext = type { ptr, i32, i32, ptr, ptr }
%struct._packet_info = type { ptr, ptr, i32, i32, %struct.nstime_t, %struct.nstime_t, %struct.nstime_t, i8, ptr, ptr, ptr, ptr, %struct._address, %struct._address, %struct._address, %struct._address, %struct._address, %struct._address, i32, ptr, i8, [3 x i8], %struct.anon, i32, i32, i32, i32, ptr, i8, ptr, ptr, i16, i16, i32, i32, i16, i32, i32, ptr, ptr, ptr, i8, i8, i16, i16, i16, i32, i16, i16, ptr, ptr, ptr, ptr, ptr, i32, i32 }
%struct.nstime_t = type { i64, i32 }
%struct._address = type { i32, i32, ptr, ptr }
%struct.anon = type { i8, [3 x i8] }

@hf_llrp_impinj_msg_type = internal global i32 0, align 4
@impinj_msg_subtype_ext = internal global %struct._value_string_ext { ptr @_try_val_to_str_ext_init, i32 0, i32 4, ptr @impinj_msg_subtype, ptr @.str.598 }, align 8
@hf_llrp_rfu = internal global i32 0, align 4
@hf_llrp_save_config = internal global i32 0, align 4
@.str.943 = private unnamed_addr constant [17 x i8] c"Unknown Type: %d\00", align 1
@.str.950 = private unnamed_addr constant [15 x i8] c" (Impinj - %s)\00", align 1

; Function Attrs: null_pointer_is_valid sspstrong uwtable
define internal i32 @dissect_llrp_impinj_message(ptr noundef %0, ptr noundef %1, ptr noundef %2, i32 noundef %3) #0 {
  %5 = alloca ptr, align 8
  %6 = alloca ptr, align 8
  %7 = alloca ptr, align 8
  %8 = alloca i32, align 4
  %9 = alloca i8, align 1
  store ptr %0, ptr %5, align 8
  store ptr %1, ptr %6, align 8
  store ptr %2, ptr %7, align 8
  store i32 %3, ptr %8, align 4
  call void @llvm.lifetime.start.p0(i64 1, ptr %9) #4
  %10 = load ptr, ptr %5, align 8
  %11 = load i32, ptr %8, align 4
  %12 = call zeroext i8 @tvb_get_uint8(ptr noundef %10, i32 noundef %11)
  store i8 %12, ptr %9, align 1
  %13 = load ptr, ptr %6, align 8
  %14 = getelementptr inbounds nuw %struct._packet_info, ptr %13, i32 0, i32 1
  %15 = load ptr, ptr %14, align 8
  %16 = load i8, ptr %9, align 1
  %17 = zext i8 %16 to i32
  %18 = call ptr @val_to_str_ext(i32 noundef %17, ptr noundef @impinj_msg_subtype_ext, ptr noundef @.str.943)
  call void (ptr, i32, ptr, ...) @col_append_fstr(ptr noundef %15, i32 noundef 25, ptr noundef @.str.950, ptr noundef %18)
  %19 = load ptr, ptr %7, align 8
  %20 = load i32, ptr @hf_llrp_impinj_msg_type, align 4
  %21 = load ptr, ptr %5, align 8
  %22 = load i32, ptr %8, align 4
  %23 = call ptr @proto_tree_add_item(ptr noundef %19, i32 noundef %20, ptr noundef %21, i32 noundef %22, i32 noundef 1, i32 noundef 0)
  %24 = load i32, ptr %8, align 4
  %25 = add i32 %24, 1
  store i32 %25, ptr %8, align 4
  %26 = load i8, ptr %9, align 1
  %27 = zext i8 %26 to i32
  switch i32 %27, label %44 [
    i32 21, label %28
    i32 22, label %44
    i32 23, label %36
    i32 24, label %44
  ]

28:                                               ; preds = %4
  %29 = load ptr, ptr %7, align 8
  %30 = load i32, ptr @hf_llrp_rfu, align 4
  %31 = load ptr, ptr %5, align 8
  %32 = load i32, ptr %8, align 4
  %33 = call ptr @proto_tree_add_item(ptr noundef %29, i32 noundef %30, ptr noundef %31, i32 noundef %32, i32 noundef 4, i32 noundef 0)
  %34 = load i32, ptr %8, align 4
  %35 = add i32 %34, 4
  store i32 %35, ptr %8, align 4
  br label %44

36:                                               ; preds = %4
  %37 = load ptr, ptr %7, align 8
  %38 = load i32, ptr @hf_llrp_save_config, align 4
  %39 = load ptr, ptr %5, align 8
  %40 = load i32, ptr %8, align 4
  %41 = call ptr @proto_tree_add_item(ptr noundef %37, i32 noundef %38, ptr noundef %39, i32 noundef %40, i32 noundef 1, i32 noundef 0)
  %42 = load i32, ptr %8, align 4
  %43 = add i32 %42, 1
  store i32 %43, ptr %8, align 4
  br label %44

44:                                               ; preds = %4, %4, %36, %4, %28
  %45 = load i32, ptr %8, align 4
  call void @llvm.lifetime.end.p0(i64 1, ptr %9) #4
  ret i32 %45
}