; Function Attrs: null_pointer_is_valid sspstrong uwtable
define internal fastcc noundef i32 @dissect_llrp_impinj_message(ptr noundef %0, ptr noundef readonly captures(none) %1, ptr noundef %2, i32 noundef %3) unnamed_addr #0 {
  %5 = tail call zeroext i8 @tvb_get_uint8(ptr noundef %0, i32 noundef %3)
  %6 = getelementptr inbounds nuw i8, ptr %1, i64 8
  %7 = load ptr, ptr %6, align 8
  %8 = zext i8 %5 to i32
  %9 = tail call ptr @val_to_str_ext(i32 noundef %8, ptr noundef nonnull @impinj_msg_subtype_ext, ptr noundef nonnull @.str.943)
  tail call void (ptr, i32, ptr, ...) @col_append_fstr(ptr noundef %7, i32 noundef 25, ptr noundef nonnull @.str.950, ptr noundef %9)
  %10 = load i32, ptr @hf_llrp_impinj_msg_type, align 4
  %11 = tail call ptr @proto_tree_add_item(ptr noundef %2, i32 noundef %10, ptr noundef %0, i32 noundef %3, i32 noundef 1, i32 noundef 0)
  %12 = add i32 %3, 1
  switch i8 %5, label %17 [
    i8 21, label %.sink.split
    i8 23, label %13
  ]

13:                                               ; preds = %4
  br label %.sink.split

.sink.split:                                      ; preds = %4, %13
  %hf_llrp_save_config.sink = phi ptr [ @hf_llrp_save_config, %13 ], [ @hf_llrp_rfu, %4 ]
  %.sink18 = phi i32 [ 1, %13 ], [ 4, %4 ]
  %.sink = phi i32 [ 2, %13 ], [ 5, %4 ]
  %14 = load i32, ptr %hf_llrp_save_config.sink, align 4
  %15 = tail call ptr @proto_tree_add_item(ptr noundef %2, i32 noundef %14, ptr noundef %0, i32 noundef %12, i32 noundef %.sink18, i32 noundef 0)
  %16 = add i32 %3, %.sink
  br label %17

17:                                               ; preds = %.sink.split, %4
  %.0 = phi i32 [ %12, %4 ], [ %16, %.sink.split ]
  ret i32 %.0
}